target datalayout = "e-m:e-p270:32:32-p271:32:32-p272:64:64-i64:64-i128:128-f80:128-n8:16:32:64-S128"
target triple = "x86_64-pc-linux-gnu"

%struct.AVOutputFormat = type { ptr, ptr, ptr, ptr, i32, i32, i32, i32, ptr, ptr }
%struct.AVFormatContext = type { ptr, ptr, ptr, ptr, ptr, i32, i32, ptr, i32, ptr, i32, ptr, ptr, i64, i64, i64, i32, i32, i32, i64, i64, ptr, i32, i32, ptr, i32, i32, i32, i32, ptr, i64, i32, i32, %struct.AVIOInterruptCB, i32, i32, i32, i32, i64, i32, i32, i32, i32, i32, i32, i32, i32, i32, i32, i32, i32, i64, i32, i32, i32, i32, i32, ptr, ptr, ptr, ptr, i32, ptr, ptr, ptr, ptr, i32, ptr, ptr, i64, ptr, ptr, ptr, i64 }
%struct.AVIOInterruptCB = type { ptr, ptr }
%struct.SegmentContext = type { ptr, i32, i32, i32, i32, ptr, ptr, ptr, ptr, ptr, i32, i32, i32, i32, i64, i64, i64, i32, i32, ptr, i32, ptr, i64, i64, i32, i32, ptr, ptr, i32, ptr, ptr, i32, i32, i32, i64, i32, i32, ptr, i32, i64, ptr, i32, i64, i32, i32, i32, [1024 x i8], %struct.SegmentListEntry, ptr, ptr }
%struct.SegmentListEntry = type { i32, double, double, i64, i64, ptr, ptr, i64 }
%struct.AVRational = type { i32, i32 }
%struct.AVPacket = type { ptr, i64, i64, ptr, i32, i32, i32, ptr, i32, i64, i64, ptr, ptr, %struct.AVRational }
%struct.AVStream = type { ptr, i32, i32, ptr, ptr, %struct.AVRational, i64, i64, i64, i32, i32, %struct.AVRational, ptr, %struct.AVRational, %struct.AVPacket, i32, %struct.AVRational, i32 }
%struct.AVCodecParameters = type { i32, i32, i32, ptr, i32, ptr, i32, i32, i64, i32, i32, i32, i32, i32, i32, %struct.AVRational, %struct.AVRational, i32, i32, i32, i32, i32, i32, i32, %struct.AVChannelLayout, i32, i32, i32, i32, i32, i32 }
%struct.AVChannelLayout = type { i32, i32, %union.anon.0, ptr }
%union.anon.0 = type { i64 }

; Function Attrs: nounwind uwtable
define internal i32 @segment_mux_init(ptr noundef %0) #0 {
  %2 = alloca i32, align 4
  %3 = alloca ptr, align 8
  %4 = alloca ptr, align 8
  %5 = alloca ptr, align 8
  %6 = alloca i32, align 4
  %7 = alloca i32, align 4
  %8 = alloca i32, align 4
  %9 = alloca ptr, align 8
  %10 = alloca ptr, align 8
  %11 = alloca ptr, align 8
  %12 = alloca ptr, align 8
  store ptr %0, ptr %3, align 8, !tbaa !4
  call void @llvm.lifetime.start.p0(i64 8, ptr %4) #12
  %13 = load ptr, ptr %3, align 8, !tbaa !4
  %14 = getelementptr inbounds nuw %struct.AVFormatContext, ptr %13, i32 0, i32 3
  %15 = load ptr, ptr %14, align 8, !tbaa !9
  store ptr %15, ptr %4, align 8, !tbaa !26
  call void @llvm.lifetime.start.p0(i64 8, ptr %5) #12
  call void @llvm.lifetime.start.p0(i64 4, ptr %6) #12
  call void @llvm.lifetime.start.p0(i64 4, ptr %7) #12
  %16 = load ptr, ptr %4, align 8, !tbaa !26
  %17 = getelementptr inbounds nuw %struct.SegmentContext, ptr %16, i32 0, i32 6
  %18 = load ptr, ptr %4, align 8, !tbaa !26
  %19 = getelementptr inbounds nuw %struct.SegmentContext, ptr %18, i32 0, i32 5
  %20 = load ptr, ptr %19, align 8, !tbaa !119
  %21 = call i32 @avformat_alloc_output_context2(ptr noundef %17, ptr noundef %20, ptr noundef null, ptr noundef null)
  store i32 %21, ptr %7, align 4, !tbaa !36
  %22 = load i32, ptr %7, align 4, !tbaa !36
  %23 = icmp slt i32 %22, 0
  br i1 %23, label %24, label %26

24:                                               ; preds = %1
  %25 = load i32, ptr %7, align 4, !tbaa !36
  store i32 %25, ptr %2, align 4
  store i32 1, ptr %8, align 4
  br label %140

26:                                               ; preds = %1
  %27 = load ptr, ptr %4, align 8, !tbaa !26
  %28 = getelementptr inbounds nuw %struct.SegmentContext, ptr %27, i32 0, i32 6
  %29 = load ptr, ptr %28, align 8, !tbaa !28
  store ptr %29, ptr %5, align 8, !tbaa !4
  %30 = load ptr, ptr %5, align 8, !tbaa !4
  %31 = getelementptr inbounds nuw %struct.AVFormatContext, ptr %30, i32 0, i32 33
  %32 = load ptr, ptr %3, align 8, !tbaa !4
  %33 = getelementptr inbounds nuw %struct.AVFormatContext, ptr %32, i32 0, i32 33
  call void @llvm.memcpy.p0.p0.i64(ptr align 8 %31, ptr align 8 %33, i64 16, i1 false), !tbaa.struct !181
  %34 = load ptr, ptr %3, align 8, !tbaa !4
  %35 = getelementptr inbounds nuw %struct.AVFormatContext, ptr %34, i32 0, i32 17
  %36 = load i32, ptr %35, align 4, !tbaa !182
  %37 = load ptr, ptr %5, align 8, !tbaa !4
  %38 = getelementptr inbounds nuw %struct.AVFormatContext, ptr %37, i32 0, i32 17
  store i32 %36, ptr %38, align 4, !tbaa !182
  %39 = load ptr, ptr %5, align 8, !tbaa !4
  %40 = getelementptr inbounds nuw %struct.AVFormatContext, ptr %39, i32 0, i32 29
  %41 = load ptr, ptr %3, align 8, !tbaa !4
  %42 = getelementptr inbounds nuw %struct.AVFormatContext, ptr %41, i32 0, i32 29
  %43 = load ptr, ptr %42, align 8, !tbaa !157
  %44 = call i32 @av_dict_copy(ptr noundef %40, ptr noundef %43, i32 noundef 0)
  %45 = load ptr, ptr %3, align 8, !tbaa !4
  %46 = getelementptr inbounds nuw %struct.AVFormatContext, ptr %45, i32 0, i32 67
  %47 = load ptr, ptr %46, align 8, !tbaa !183
  %48 = load ptr, ptr %5, align 8, !tbaa !4
  %49 = getelementptr inbounds nuw %struct.AVFormatContext, ptr %48, i32 0, i32 67
  store ptr %47, ptr %49, align 8, !tbaa !183
  %50 = load ptr, ptr %3, align 8, !tbaa !4
  %51 = getelementptr inbounds nuw %struct.AVFormatContext, ptr %50, i32 0, i32 72
  %52 = load ptr, ptr %51, align 8, !tbaa !184
  %53 = load ptr, ptr %5, align 8, !tbaa !4
  %54 = getelementptr inbounds nuw %struct.AVFormatContext, ptr %53, i32 0, i32 72
  store ptr %52, ptr %54, align 8, !tbaa !184
  %55 = load ptr, ptr %3, align 8, !tbaa !4
  %56 = getelementptr inbounds nuw %struct.AVFormatContext, ptr %55, i32 0, i32 71
  %57 = load ptr, ptr %56, align 8, !tbaa !40
  %58 = load ptr, ptr %5, align 8, !tbaa !4
  %59 = getelementptr inbounds nuw %struct.AVFormatContext, ptr %58, i32 0, i32 71
  store ptr %57, ptr %59, align 8, !tbaa !40
  %60 = load ptr, ptr %3, align 8, !tbaa !4
  %61 = getelementptr inbounds nuw %struct.AVFormatContext, ptr %60, i32 0, i32 18
  %62 = load i32, ptr %61, align 8, !tbaa !185
  %63 = load ptr, ptr %5, align 8, !tbaa !4
  %64 = getelementptr inbounds nuw %struct.AVFormatContext, ptr %63, i32 0, i32 18
  store i32 %62, ptr %64, align 8, !tbaa !185
  store i32 0, ptr %6, align 4, !tbaa !36
  br label %65

65:                                               ; preds = %136, %26
  %66 = load i32, ptr %6, align 4, !tbaa !36
  %67 = load ptr, ptr %3, align 8, !tbaa !4
  %68 = getelementptr inbounds nuw %struct.AVFormatContext, ptr %67, i32 0, i32 6
  %69 = load i32, ptr %68, align 4, !tbaa !123
  %70 = icmp ult i32 %66, %69
  br i1 %70, label %71, label %139

71:                                               ; preds = %65
  call void @llvm.lifetime.start.p0(i64 8, ptr %9) #12
  call void @llvm.lifetime.start.p0(i64 8, ptr %10) #12
  %72 = load ptr, ptr %3, align 8, !tbaa !4
  %73 = getelementptr inbounds nuw %struct.AVFormatContext, ptr %72, i32 0, i32 7
  %74 = load ptr, ptr %73, align 8, !tbaa !48
  %75 = load i32, ptr %6, align 4, !tbaa !36
  %76 = sext i32 %75 to i64
  %77 = getelementptr inbounds ptr, ptr %74, i64 %76
  %78 = load ptr, ptr %77, align 8, !tbaa !54
  store ptr %78, ptr %10, align 8, !tbaa !54
  call void @llvm.lifetime.start.p0(i64 8, ptr %11) #12
  %79 = load ptr, ptr %10, align 8, !tbaa !54
  %80 = getelementptr inbounds nuw %struct.AVStream, ptr %79, i32 0, i32 3
  %81 = load ptr, ptr %80, align 8, !tbaa !57
  store ptr %81, ptr %11, align 8, !tbaa !186
  call void @llvm.lifetime.start.p0(i64 8, ptr %12) #12
  %82 = load ptr, ptr %5, align 8, !tbaa !4
  %83 = load ptr, ptr %10, align 8, !tbaa !54
  %84 = call ptr @ff_stream_clone(ptr noundef %82, ptr noundef %83)
  store ptr %84, ptr %9, align 8, !tbaa !54
  %85 = load ptr, ptr %9, align 8, !tbaa !54
  %86 = icmp ne ptr %85, null
  br i1 %86, label %88, label %87

87:                                               ; preds = %71
  store i32 -12, ptr %2, align 4
  store i32 1, ptr %8, align 4
  br label %133

88:                                               ; preds = %71
  %89 = load ptr, ptr %9, align 8, !tbaa !54
  %90 = getelementptr inbounds nuw %struct.AVStream, ptr %89, i32 0, i32 3
  %91 = load ptr, ptr %90, align 8, !tbaa !57
  store ptr %91, ptr %12, align 8, !tbaa !186
  %92 = load ptr, ptr %5, align 8, !tbaa !4
  %93 = getelementptr inbounds nuw %struct.AVFormatContext, ptr %92, i32 0, i32 2
  %94 = load ptr, ptr %93, align 8, !tbaa !104
  %95 = getelementptr inbounds nuw %struct.AVOutputFormat, ptr %94, i32 0, i32 8
  %96 = load ptr, ptr %95, align 8, !tbaa !187
  %97 = icmp ne ptr %96, null
  br i1 %97, label %98, label %123

98:                                               ; preds = %88
  %99 = load ptr, ptr %5, align 8, !tbaa !4
  %100 = getelementptr inbounds nuw %struct.AVFormatContext, ptr %99, i32 0, i32 2
  %101 = load ptr, ptr %100, align 8, !tbaa !104
  %102 = getelementptr inbounds nuw %struct.AVOutputFormat, ptr %101, i32 0, i32 8
  %103 = load ptr, ptr %102, align 8, !tbaa !187
  %104 = load ptr, ptr %11, align 8, !tbaa !186
  %105 = getelementptr inbounds nuw %struct.AVCodecParameters, ptr %104, i32 0, i32 2
  %106 = load i32, ptr %105, align 8, !tbaa !188
  %107 = call i32 @av_codec_get_id(ptr noundef %103, i32 noundef %106)
  %108 = load ptr, ptr %12, align 8, !tbaa !186
  %109 = getelementptr inbounds nuw %struct.AVCodecParameters, ptr %108, i32 0, i32 1
  %110 = load i32, ptr %109, align 4, !tbaa !189
  %111 = icmp eq i32 %107, %110
  br i1 %111, label %123, label %112

112:                                              ; preds = %98
  %113 = load ptr, ptr %5, align 8, !tbaa !4
  %114 = getelementptr inbounds nuw %struct.AVFormatContext, ptr %113, i32 0, i32 2
  %115 = load ptr, ptr %114, align 8, !tbaa !104
  %116 = getelementptr inbounds nuw %struct.AVOutputFormat, ptr %115, i32 0, i32 8
  %117 = load ptr, ptr %116, align 8, !tbaa !187
  %118 = load ptr, ptr %11, align 8, !tbaa !186
  %119 = getelementptr inbounds nuw %struct.AVCodecParameters, ptr %118, i32 0, i32 1
  %120 = load i32, ptr %119, align 4, !tbaa !189
  %121 = call i32 @av_codec_get_tag(ptr noundef %117, i32 noundef %120)
  %122 = icmp ule i32 %121, 0
  br i1 %122, label %123, label %129

123:                                              ; preds = %112, %98, %88
  %124 = load ptr, ptr %11, align 8, !tbaa !186
  %125 = getelementptr inbounds nuw %struct.AVCodecParameters, ptr %124, i32 0, i32 2
  %126 = load i32, ptr %125, align 8, !tbaa !188
  %127 = load ptr, ptr %12, align 8, !tbaa !186
  %128 = getelementptr inbounds nuw %struct.AVCodecParameters, ptr %127, i32 0, i32 2
  store i32 %126, ptr %128, align 8, !tbaa !188
  br label %132

129:                                              ; preds = %112
  %130 = load ptr, ptr %12, align 8, !tbaa !186
  %131 = getelementptr inbounds nuw %struct.AVCodecParameters, ptr %130, i32 0, i32 2
  store i32 0, ptr %131, align 8, !tbaa !188
  br label %132

132:                                              ; preds = %129, %123
  store i32 0, ptr %8, align 4
  br label %133

133:                                              ; preds = %132, %87
  call void @llvm.lifetime.end.p0(i64 8, ptr %12) #12
  call void @llvm.lifetime.end.p0(i64 8, ptr %11) #12
  call void @llvm.lifetime.end.p0(i64 8, ptr %10) #12
  call void @llvm.lifetime.end.p0(i64 8, ptr %9) #12
  %134 = load i32, ptr %8, align 4
  switch i32 %134, label %140 [
    i32 0, label %135
  ]

135:                                              ; preds = %133
  br label %136

136:                                              ; preds = %135
  %137 = load i32, ptr %6, align 4, !tbaa !36
  %138 = add nsw i32 %137, 1
  store i32 %138, ptr %6, align 4, !tbaa !36
  br label %65, !llvm.loop !190

139:                                              ; preds = %65
  store i32 0, ptr %2, align 4
  store i32 1, ptr %8, align 4
  br label %140

140:                                              ; preds = %139, %133, %24
  call void @llvm.lifetime.end.p0(i64 4, ptr %7) #12
  call void @llvm.lifetime.end.p0(i64 4, ptr %6) #12
  call void @llvm.lifetime.end.p0(i64 8, ptr %5) #12
  call void @llvm.lifetime.end.p0(i64 8, ptr %4) #12
  %141 = load i32, ptr %2, align 4
  ret i32 %141
}