; Function Attrs: nounwind uwtable
define internal fastcc range(i32 -2147483648, 1) i32 @segment_mux_init(ptr noundef readonly captures(none) %0) unnamed_addr #0 {
  %2 = getelementptr inbounds nuw i8, ptr %0, i64 24
  %3 = load ptr, ptr %2, align 8, !tbaa !4
  %4 = getelementptr inbounds nuw i8, ptr %3, i64 32
  %5 = getelementptr inbounds nuw i8, ptr %3, i64 24
  %6 = load ptr, ptr %5, align 8, !tbaa !129
  %7 = tail call i32 @avformat_alloc_output_context2(ptr noundef nonnull %4, ptr noundef %6, ptr noundef null, ptr noundef null) #13
  %8 = icmp slt i32 %7, 0
  br i1 %8, label %.critedge, label %9

9:                                                ; preds = %1
  %10 = load ptr, ptr %4, align 8, !tbaa !24
  %11 = getelementptr inbounds nuw i8, ptr %10, i64 216
  %12 = getelementptr inbounds nuw i8, ptr %0, i64 216
  tail call void @llvm.memcpy.p0.p0.i64(ptr noundef nonnull align 8 dereferenceable(16) %11, ptr noundef nonnull align 8 dereferenceable(16) %12, i64 16, i1 false), !tbaa.struct !173
  %13 = getelementptr inbounds nuw i8, ptr %0, i64 124
  %14 = load i32, ptr %13, align 4, !tbaa !175
  %15 = getelementptr inbounds nuw i8, ptr %10, i64 124
  store i32 %14, ptr %15, align 4, !tbaa !175
  %16 = getelementptr inbounds nuw i8, ptr %10, i64 192
  %17 = getelementptr inbounds nuw i8, ptr %0, i64 192
  %18 = load ptr, ptr %17, align 8, !tbaa !159
  %19 = tail call i32 @av_dict_copy(ptr noundef nonnull %16, ptr noundef %18, i32 noundef 0) #13
  %20 = getelementptr inbounds nuw i8, ptr %0, i64 416
  %21 = load ptr, ptr %20, align 8, !tbaa !176
  %22 = getelementptr inbounds nuw i8, ptr %10, i64 416
  store ptr %21, ptr %22, align 8, !tbaa !176
  %23 = getelementptr inbounds nuw i8, ptr %0, i64 456
  %24 = load ptr, ptr %23, align 8, !tbaa !177
  %25 = getelementptr inbounds nuw i8, ptr %10, i64 456
  store ptr %24, ptr %25, align 8, !tbaa !177
  %26 = getelementptr inbounds nuw i8, ptr %0, i64 448
  %27 = load ptr, ptr %26, align 8, !tbaa !37
  %28 = getelementptr inbounds nuw i8, ptr %10, i64 448
  store ptr %27, ptr %28, align 8, !tbaa !37
  %29 = getelementptr inbounds nuw i8, ptr %0, i64 128
  %30 = load i32, ptr %29, align 8, !tbaa !178
  %31 = getelementptr inbounds nuw i8, ptr %10, i64 128
  store i32 %30, ptr %31, align 8, !tbaa !178
  %32 = getelementptr inbounds nuw i8, ptr %0, i64 48
  %33 = getelementptr inbounds nuw i8, ptr %0, i64 44
  %34 = load i32, ptr %33, align 4, !tbaa !122
  %.not = icmp eq i32 %34, 0
  br i1 %.not, label %.critedge, label %.lr.ph

.lr.ph:                                           ; preds = %9
  %35 = getelementptr inbounds nuw i8, ptr %10, i64 16
  br label %36

36:                                               ; preds = %.lr.ph, %67
  %indvars.iv = phi i64 [ 0, %.lr.ph ], [ %indvars.iv.next, %67 ]
  %37 = load ptr, ptr %32, align 8, !tbaa !43
  %38 = getelementptr inbounds nuw ptr, ptr %37, i64 %indvars.iv
  %39 = load ptr, ptr %38, align 8, !tbaa !49
  %40 = getelementptr inbounds nuw i8, ptr %39, i64 16
  %41 = load ptr, ptr %40, align 8, !tbaa !51
  %42 = tail call ptr @ff_stream_clone(ptr noundef nonnull %10, ptr noundef %39) #13
  %.not.not = icmp eq ptr %42, null
  br i1 %.not.not, label %.critedge, label %43

43:                                               ; preds = %36
  %44 = getelementptr inbounds nuw i8, ptr %42, i64 16
  %45 = load ptr, ptr %44, align 8, !tbaa !51
  %46 = load ptr, ptr %35, align 8, !tbaa !91
  %47 = getelementptr inbounds nuw i8, ptr %46, i64 48
  %48 = load ptr, ptr %47, align 8, !tbaa !179
  %.not45 = icmp eq ptr %48, null
  br i1 %.not45, label %64, label %49

49:                                               ; preds = %43
  %50 = getelementptr inbounds nuw i8, ptr %41, i64 8
  %51 = load i32, ptr %50, align 8, !tbaa !180
  %52 = tail call i32 @av_codec_get_id(ptr noundef nonnull %48, i32 noundef %51) #13
  %53 = getelementptr inbounds nuw i8, ptr %45, i64 4
  %54 = load i32, ptr %53, align 4, !tbaa !181
  %55 = icmp eq i32 %52, %54
  br i1 %55, label %64, label %56

56:                                               ; preds = %49
  %57 = load ptr, ptr %35, align 8, !tbaa !91
  %58 = getelementptr inbounds nuw i8, ptr %57, i64 48
  %59 = load ptr, ptr %58, align 8, !tbaa !179
  %60 = getelementptr inbounds nuw i8, ptr %41, i64 4
  %61 = load i32, ptr %60, align 4, !tbaa !181
  %62 = tail call i32 @av_codec_get_tag(ptr noundef %59, i32 noundef %61) #13
  %63 = icmp eq i32 %62, 0
  br i1 %63, label %64, label %67

64:                                               ; preds = %56, %49, %43
  %65 = getelementptr inbounds nuw i8, ptr %41, i64 8
  %66 = load i32, ptr %65, align 8, !tbaa !180
  br label %67

67:                                               ; preds = %56, %64
  %.sink = phi i32 [ %66, %64 ], [ 0, %56 ]
  %68 = getelementptr inbounds nuw i8, ptr %45, i64 8
  store i32 %.sink, ptr %68, align 8, !tbaa !180
  %indvars.iv.next = add nuw nsw i64 %indvars.iv, 1
  %69 = load i32, ptr %33, align 4, !tbaa !122
  %70 = zext i32 %69 to i64
  %71 = icmp samesign ult i64 %indvars.iv.next, %70
  br i1 %71, label %36, label %.critedge, !llvm.loop !182

.critedge:                                        ; preds = %67, %36, %9, %1
  %.0 = phi i32 [ %7, %1 ], [ 0, %9 ], [ 0, %67 ], [ -12, %36 ]
  ret i32 %.0
}